2013/01/09 ÖÜÈý 21:01:54.87       
Build F320_1 ...
        1 file(s) copied.





------------------------------------------------------------

USB Bootloader Version 2.12 - Beginning Build...
Device type: _C8051F320_1_


C51 COMPILER V9.00 - SN: K1NBF-1AB1XU
COPYRIGHT KEIL ELEKTRONIK GmbH 1987 - 2009

C51 COMPILATION COMPLETE.  0 WARNING(S),  0 ERROR(S)

C51 COMPILER V9.00 - SN: K1NBF-1AB1XU
COPYRIGHT KEIL ELEKTRONIK GmbH 1987 - 2009

C51 COMPILATION COMPLETE.  0 WARNING(S),  0 ERROR(S)

C51 COMPILER V9.00 - SN: K1NBF-1AB1XU
COPYRIGHT KEIL ELEKTRONIK GmbH 1987 - 2009

C51 COMPILATION COMPLETE.  0 WARNING(S),  0 ERROR(S)

C51 COMPILER V9.00 - SN: K1NBF-1AB1XU
COPYRIGHT KEIL ELEKTRONIK GmbH 1987 - 2009

C51 COMPILATION COMPLETE.  0 WARNING(S),  0 ERROR(S)

A51 MACRO ASSEMBLER V8.01 - SN: K1NBF-1AB1XU
COPYRIGHT KEIL ELEKTRONIK GmbH 1987 - 2007

ASSEMBLY COMPLETE.  0 WARNING(S), 0 ERROR(S)
ECHO is off.
ECHO is off.
Link object in free way ...
ECHO is off.

BL51 BANKED LINKER/LOCATER V6.22 - SN: K1NBF-1AB1XU
COPYRIGHT KEIL ELEKTRONIK GmbH 1987 - 2009
USB_BL_ISR.OBJ, USB_BL_MAIN.OBJ, USB_BL_QUEUEMGMT.OBJ, USB_BL_USB_DESCRIPTOR.OBJ, USB_BL_STARTUP.OBJ, USBX_F320_1.LIB TO USB_BL_F320_1_16K.OMF RS(256) PL(48) PW(118) IXREF CODE(0x0-0x13FF,0x3C00-0x3DFE) 


Program Size: data=37.2 xdata=1342 code=5304
LINK/LOCATE RUN COMPLETE.  0 WARNING(S),  0 ERROR(S)

OBJECT TO HEX FILE CONVERTER OH51 V2.6
COPYRIGHT KEIL ELEKTRONIK GmbH 1991 - 2001

GENERATING INTEL HEX FILE: USB_BL_F320_1_16K.hex

OBJECT TO HEX CONVERSION COMPLETED.

End of build process.

Build F320_1 done
Pare M51 file ...
                                                     
Pare M51 file done.                                  
ECHO is off.
SYMBOL TABLE OF MODULE:  USB_BL_F320_1_16K.OMF (USB_BL_ISR)
            CODE    008EH     0237H     UNIT         ?PR?USBXCORE_HANDLE_SETUP?USB_API
            CODE    04B5H     0151H     UNIT         ?PR?USBXCORE_USB_ISR?USB_API
            CODE    02C5H     01F0H     UNIT         ?PR?_BLOCK_WRITE?BLOCK_WRITE
            CODE    086DH     0110H     UNIT         ?PR?USBXCORE_VENDOR_USB_API?USB_API
            CODE    073DH     0130H     UNIT         ?PR?_BLOCK_READ?BLOCK_READ
            CODE    0A72H     00BBH     UNIT         ?PR?USBXCORE_GET_DESCRIPTOR?USB_API
            CODE    0D69H     0073H     UNIT         ?PR?USBXCORE_GET_STATUS?USB_API
            CODE    1207H     0042H     UNIT         ?PR?USB_SUSPEND?USB_SUSPEND
            CODE    1287H     003AH     UNIT         ?CO?USB_API
            CODE    0F5AH     005AH     UNIT         ?PR?USBXCORE_SET_CONFIGURATION?USB_API
            CODE    0E9DH     005FH     UNIT         ?PR?USBXCORE_CLEAR_FEATURE?USB_API
            CODE    0EFCH     005EH     UNIT         ?PR?USBXCORE_SET_FEATURE?USB_API
            CODE    117BH     0047H     UNIT         ?PR?USBXCORE_GET_CONFIGURATION?USB_API
            CODE    136BH     0027H     UNIT         ?PR?USBXCORE_USB_RESET?USB_API
            CODE    1392H     0027H     UNIT         ?PR?USBXCORE_GET_INTERFACE?USB_API
            CODE    12C1H     002DH     UNIT         ?PR?USB_DISABLE?USB_DISABLE
            CODE    13DDH     0022H     UNIT         ?PR?USBXCORE_JUMP_ISR?USB_JUMP_ISR
            CODE    3C21H     0020H     UNIT         ?PR?USBXCORE_SET_ADDRESS?USB_API
            CODE    3C41H     001DH     UNIT         ?PR?USBXCORE_FORCE_STALL?USB_API
            CODE    3C91H     0019H     UNIT         ?PR?USB_INT_ENABLE?USB_INT_ENABLE
            CODE    3CAAH     0014H     UNIT         ?PR?USBXCORE_SET_SOP?USB_API
            CODE    3CD1H     000FH     UNIT         ?PR?GET_INTERRUPT_SOURCE?GET_INTERRUPT_SOURCE
            CODE    3CF5H     0008H     UNIT         ?PR?USB_INT_DISABLE?USB_INT_DISABLE
            86  =DEC2HEX(D186)  ?CO?USB_BL_USB_DESCRIPTOR                                          
            CODE    0606H     0137H     UNIT         ?PR?_USB_INIT?USB_API
            CODE    1132H     0049H     UNIT         ?PR?USB_CLOCK_START?USB_CLOCK_START
            CODE    3CE0H     000CH     UNIT         ?PR?USBXCORE_CLKREC?USB_CLOCK_RECOVERY
            CODE    0006H     0005H     UNIT         ?PR?USB_GET_LIBRARY_VERSION?USB_GET_LIBRARY_VERSION
            CODE    000EH     0004H     UNIT         ?C_INITSEG
?C_INITSEGSTART. . . . . . . CODE;    ** L51 GENERATED **  
C:\WorkFolder\MCU\WorkTrunk\Projects\Internal\2012\an200sw\AN200SW\USB_Bootloader_Firmware_Source\USB_BL_F320_1_16K.hex
C:\WorkFolder\MCU\WorkTrunk\Projects\Internal\2012\an200sw\AN200SW\USB_Bootloader_Firmware_Source\USB_BL_F320_1_16K.M51
C:\WorkFolder\MCU\WorkTrunk\Projects\Internal\2012\an200sw\AN200SW\USB_Bootloader_Firmware_Source\USB_BL_F320_1_16K.OMF
C:\WorkFolder\MCU\WorkTrunk\Projects\Internal\2012\an200sw\AN200SW\USB_Bootloader_Firmware_Source\USB_BL_F320_1_16K_CODE_BLOCK_LEN.txt
        4 file(s) moved.
Build F326_7 ...
        1 file(s) copied.





------------------------------------------------------------

USB Bootloader Version 2.12 - Beginning Build...
Device type: _C8051F326_7_


C51 COMPILER V9.00 - SN: K1NBF-1AB1XU
COPYRIGHT KEIL ELEKTRONIK GmbH 1987 - 2009

C51 COMPILATION COMPLETE.  0 WARNING(S),  0 ERROR(S)

C51 COMPILER V9.00 - SN: K1NBF-1AB1XU
COPYRIGHT KEIL ELEKTRONIK GmbH 1987 - 2009

C51 COMPILATION COMPLETE.  0 WARNING(S),  0 ERROR(S)

C51 COMPILER V9.00 - SN: K1NBF-1AB1XU
COPYRIGHT KEIL ELEKTRONIK GmbH 1987 - 2009

C51 COMPILATION COMPLETE.  0 WARNING(S),  0 ERROR(S)

C51 COMPILER V9.00 - SN: K1NBF-1AB1XU
COPYRIGHT KEIL ELEKTRONIK GmbH 1987 - 2009

C51 COMPILATION COMPLETE.  0 WARNING(S),  0 ERROR(S)

A51 MACRO ASSEMBLER V8.01 - SN: K1NBF-1AB1XU
COPYRIGHT KEIL ELEKTRONIK GmbH 1987 - 2007

ASSEMBLY COMPLETE.  0 WARNING(S), 0 ERROR(S)
ECHO is off.
ECHO is off.
Link object in free way ...
ECHO is off.

BL51 BANKED LINKER/LOCATER V6.22 - SN: K1NBF-1AB1XU
COPYRIGHT KEIL ELEKTRONIK GmbH 1987 - 2009
USB_BL_ISR.OBJ, USB_BL_MAIN.OBJ, USB_BL_QUEUEMGMT.OBJ, USB_BL_USB_DESCRIPTOR.OBJ, USB_BL_STARTUP.OBJ, USBX_F326_7.LIB TO USB_BL_F326_7_16K.OMF RS(256) PL(48) PW(118) IXREF CODE(0x0-0x13FF,0x3C00-0x3DFE) 


Program Size: data=37.2 xdata=1021 code=5269
LINK/LOCATE RUN COMPLETE.  0 WARNING(S),  0 ERROR(S)

OBJECT TO HEX FILE CONVERTER OH51 V2.6
COPYRIGHT KEIL ELEKTRONIK GmbH 1991 - 2001

GENERATING INTEL HEX FILE: USB_BL_F326_7_16K.hex

OBJECT TO HEX CONVERSION COMPLETED.

End of build process.

Build F326_7 done
Pare M51 file ...
                                                     
Pare M51 file done.                                  
ECHO is off.
SYMBOL TABLE OF MODULE:  USB_BL_F326_7_16K.OMF (USB_BL_ISR)
            CODE    008EH     0237H     UNIT         ?PR?USBXCORE_HANDLE_SETUP?USB_API
            CODE    04B5H     0151H     UNIT         ?PR?USBXCORE_USB_ISR?USB_API
            CODE    02C5H     01F0H     UNIT         ?PR?_BLOCK_WRITE?BLOCK_WRITE
            CODE    086DH     0110H     UNIT         ?PR?USBXCORE_VENDOR_USB_API?USB_API
            CODE    073DH     0130H     UNIT         ?PR?_BLOCK_READ?BLOCK_READ
            CODE    0A6FH     00BBH     UNIT         ?PR?USBXCORE_GET_DESCRIPTOR?USB_API
            CODE    0D66H     0073H     UNIT         ?PR?USBXCORE_GET_STATUS?USB_API
            CODE    1202H     0042H     UNIT         ?PR?USB_SUSPEND?USB_SUSPEND
            CODE    1282H     003AH     UNIT         ?CO?USB_API
            CODE    0F57H     005AH     UNIT         ?PR?USBXCORE_SET_CONFIGURATION?USB_API
            CODE    0E9AH     005FH     UNIT         ?PR?USBXCORE_CLEAR_FEATURE?USB_API
            CODE    0EF9H     005EH     UNIT         ?PR?USBXCORE_SET_FEATURE?USB_API
            CODE    112FH     0047H     UNIT         ?PR?USBXCORE_GET_CONFIGURATION?USB_API
            CODE    1339H     0027H     UNIT         ?PR?USBXCORE_USB_RESET?USB_API
            CODE    1360H     0027H     UNIT         ?PR?USBXCORE_GET_INTERFACE?USB_API
            CODE    0046H     002DH     UNIT         ?PR?USB_DISABLE?USB_DISABLE
            CODE    13ABH     0022H     UNIT         ?PR?USBXCORE_JUMP_ISR?USB_JUMP_ISR
            CODE    3C00H     0020H     UNIT         ?PR?USBXCORE_SET_ADDRESS?USB_API
            CODE    0026H     001DH     UNIT         ?PR?USBXCORE_FORCE_STALL?USB_API
            CODE    3C53H     0019H     UNIT         ?PR?USB_INT_ENABLE?USB_INT_ENABLE
            CODE    3C6CH     0014H     UNIT         ?PR?USBXCORE_SET_SOP?USB_API
            CODE    13EEH     000FH     UNIT         ?PR?GET_INTERRUPT_SOURCE?GET_INTERRUPT_SOURCE
            CODE    0073H     0008H     UNIT         ?PR?USB_INT_DISABLE?USB_INT_DISABLE
            86  =DEC2HEX(D186)  ?CO?USB_BL_USB_DESCRIPTOR                                          
            CODE    0606H     0137H     UNIT         ?PR?_USB_INIT?USB_API
            CODE    1176H     0047H     UNIT         ?PR?USB_CLOCK_START?USB_CLOCK_START
            CODE    3C93H     000CH     UNIT         ?PR?USBXCORE_CLKREC?USB_CLOCK_RECOVERY
            CODE    0006H     0005H     UNIT         ?PR?USB_GET_LIBRARY_VERSION?USB_GET_LIBRARY_VERSION
            CODE    000EH     0004H     UNIT         ?C_INITSEG
?C_INITSEGSTART. . . . . . . CODE;    ** L51 GENERATED **  
C:\WorkFolder\MCU\WorkTrunk\Projects\Internal\2012\an200sw\AN200SW\USB_Bootloader_Firmware_Source\USB_BL_F326_7_16K.hex
C:\WorkFolder\MCU\WorkTrunk\Projects\Internal\2012\an200sw\AN200SW\USB_Bootloader_Firmware_Source\USB_BL_F326_7_16K.M51
C:\WorkFolder\MCU\WorkTrunk\Projects\Internal\2012\an200sw\AN200SW\USB_Bootloader_Firmware_Source\USB_BL_F326_7_16K.OMF
C:\WorkFolder\MCU\WorkTrunk\Projects\Internal\2012\an200sw\AN200SW\USB_Bootloader_Firmware_Source\USB_BL_F326_7_16K_CODE_BLOCK_LEN.txt
        4 file(s) moved.
Build F34x_32k ...
        1 file(s) copied.





------------------------------------------------------------

USB Bootloader Version 2.12 - Beginning Build...
Device type: _C8051F34X_32K_


C51 COMPILER V9.00 - SN: K1NBF-1AB1XU
COPYRIGHT KEIL ELEKTRONIK GmbH 1987 - 2009

C51 COMPILATION COMPLETE.  0 WARNING(S),  0 ERROR(S)

C51 COMPILER V9.00 - SN: K1NBF-1AB1XU
COPYRIGHT KEIL ELEKTRONIK GmbH 1987 - 2009

C51 COMPILATION COMPLETE.  0 WARNING(S),  0 ERROR(S)

C51 COMPILER V9.00 - SN: K1NBF-1AB1XU
COPYRIGHT KEIL ELEKTRONIK GmbH 1987 - 2009

C51 COMPILATION COMPLETE.  0 WARNING(S),  0 ERROR(S)

C51 COMPILER V9.00 - SN: K1NBF-1AB1XU
COPYRIGHT KEIL ELEKTRONIK GmbH 1987 - 2009

C51 COMPILATION COMPLETE.  0 WARNING(S),  0 ERROR(S)

A51 MACRO ASSEMBLER V8.01 - SN: K1NBF-1AB1XU
COPYRIGHT KEIL ELEKTRONIK GmbH 1987 - 2007

ASSEMBLY COMPLETE.  0 WARNING(S), 0 ERROR(S)
ECHO is off.
ECHO is off.
Link object in free way ...
ECHO is off.

BL51 BANKED LINKER/LOCATER V6.22 - SN: K1NBF-1AB1XU
COPYRIGHT KEIL ELEKTRONIK GmbH 1987 - 2009
USB_BL_ISR.OBJ, USB_BL_MAIN.OBJ, USB_BL_QUEUEMGMT.OBJ, USB_BL_USB_DESCRIPTOR.OBJ, USB_BL_STARTUP.OBJ, USBX_F34X.LIB TO USB_BL_F34X_32K.OMF RS(256) PL(48) PW(118) IXREF CODE(0x0-0x13FF,0x7E00-0x7FFE) 


Program Size: data=37.2 xdata=1342 code=5302
LINK/LOCATE RUN COMPLETE.  0 WARNING(S),  0 ERROR(S)

OBJECT TO HEX FILE CONVERTER OH51 V2.6
COPYRIGHT KEIL ELEKTRONIK GmbH 1991 - 2001

GENERATING INTEL HEX FILE: USB_BL_F34X_32K.hex

OBJECT TO HEX CONVERSION COMPLETED.

End of build process.

Build F34x_32k done
Pare M51 file ...
                                                     
Pare M51 file done.                                  
ECHO is off.
SYMBOL TABLE OF MODULE:  USB_BL_F34X_32K.OMF (USB_BL_ISR)
            CODE    0096H     0237H     UNIT         ?PR?USBXCORE_HANDLE_SETUP?USB_API
            CODE    04BDH     0151H     UNIT         ?PR?USBXCORE_USB_ISR?USB_API
            CODE    02CDH     01F0H     UNIT         ?PR?_BLOCK_WRITE?BLOCK_WRITE
            CODE    0875H     0110H     UNIT         ?PR?USBXCORE_VENDOR_USB_API?USB_API
            CODE    0745H     0130H     UNIT         ?PR?_BLOCK_READ?BLOCK_READ
            CODE    0A7AH     00BBH     UNIT         ?PR?USBXCORE_GET_DESCRIPTOR?USB_API
            CODE    0D71H     0073H     UNIT         ?PR?USBXCORE_GET_STATUS?USB_API
            CODE    120DH     0042H     UNIT         ?PR?USB_SUSPEND?USB_SUSPEND
            CODE    128DH     003AH     UNIT         ?CO?USB_API
            CODE    0F62H     005AH     UNIT         ?PR?USBXCORE_SET_CONFIGURATION?USB_API
            CODE    0EA5H     005FH     UNIT         ?PR?USBXCORE_CLEAR_FEATURE?USB_API
            CODE    0F04H     005EH     UNIT         ?PR?USBXCORE_SET_FEATURE?USB_API
            CODE    113AH     0047H     UNIT         ?PR?USBXCORE_GET_CONFIGURATION?USB_API
            CODE    1371H     0027H     UNIT         ?PR?USBXCORE_USB_RESET?USB_API
            CODE    1398H     0027H     UNIT         ?PR?USBXCORE_GET_INTERFACE?USB_API
            CODE    12C7H     002DH     UNIT         ?PR?USB_DISABLE?USB_DISABLE
            CODE    7E00H     0022H     UNIT         ?PR?USBXCORE_JUMP_ISR?USB_JUMP_ISR
            CODE    7E43H     0020H     UNIT         ?PR?USBXCORE_SET_ADDRESS?USB_API
            CODE    13E3H     001DH     UNIT         ?PR?USBXCORE_FORCE_STALL?USB_API
            CODE    7E96H     0019H     UNIT         ?PR?USB_INT_ENABLE?USB_INT_ENABLE
            CODE    7EAFH     0014H     UNIT         ?PR?USBXCORE_SET_SOP?USB_API
            CODE    7ED6H     000FH     UNIT         ?PR?GET_INTERRUPT_SOURCE?GET_INTERRUPT_SOURCE
            CODE    7EFAH     0008H     UNIT         ?PR?USB_INT_DISABLE?USB_INT_DISABLE
            86  =DEC2HEX(D186)  ?CO?USB_BL_USB_DESCRIPTOR                                          
            CODE    060EH     0137H     UNIT         ?PR?_USB_INIT?USB_API
            CODE    1181H     0047H     UNIT         ?PR?USB_CLOCK_START?USB_CLOCK_START
            CODE    7EE5H     000CH     UNIT         ?PR?USBXCORE_CLKREC?USB_CLOCK_RECOVERY
            CODE    0006H     0005H     UNIT         ?PR?USB_GET_LIBRARY_VERSION?USB_GET_LIBRARY_VERSION
            CODE    000EH     0004H     UNIT         ?C_INITSEG
?C_INITSEGSTART. . . . . . . CODE;    ** L51 GENERATED **  
C:\WorkFolder\MCU\WorkTrunk\Projects\Internal\2012\an200sw\AN200SW\USB_Bootloader_Firmware_Source\USB_BL_F34X_32K.hex
C:\WorkFolder\MCU\WorkTrunk\Projects\Internal\2012\an200sw\AN200SW\USB_Bootloader_Firmware_Source\USB_BL_F34X_32K.M51
C:\WorkFolder\MCU\WorkTrunk\Projects\Internal\2012\an200sw\AN200SW\USB_Bootloader_Firmware_Source\USB_BL_F34X_32K.OMF
C:\WorkFolder\MCU\WorkTrunk\Projects\Internal\2012\an200sw\AN200SW\USB_Bootloader_Firmware_Source\USB_BL_F34X_32K_CODE_BLOCK_LEN.txt
        4 file(s) moved.
Build F34x_64k ...
        1 file(s) copied.





------------------------------------------------------------

USB Bootloader Version 2.12 - Beginning Build...
Device type: _C8051F34X_64K_


C51 COMPILER V9.00 - SN: K1NBF-1AB1XU
COPYRIGHT KEIL ELEKTRONIK GmbH 1987 - 2009

C51 COMPILATION COMPLETE.  0 WARNING(S),  0 ERROR(S)

C51 COMPILER V9.00 - SN: K1NBF-1AB1XU
COPYRIGHT KEIL ELEKTRONIK GmbH 1987 - 2009

C51 COMPILATION COMPLETE.  0 WARNING(S),  0 ERROR(S)

C51 COMPILER V9.00 - SN: K1NBF-1AB1XU
COPYRIGHT KEIL ELEKTRONIK GmbH 1987 - 2009

C51 COMPILATION COMPLETE.  0 WARNING(S),  0 ERROR(S)

C51 COMPILER V9.00 - SN: K1NBF-1AB1XU
COPYRIGHT KEIL ELEKTRONIK GmbH 1987 - 2009

C51 COMPILATION COMPLETE.  0 WARNING(S),  0 ERROR(S)

A51 MACRO ASSEMBLER V8.01 - SN: K1NBF-1AB1XU
COPYRIGHT KEIL ELEKTRONIK GmbH 1987 - 2007

ASSEMBLY COMPLETE.  0 WARNING(S), 0 ERROR(S)
ECHO is off.
ECHO is off.
Link object in free way ...
ECHO is off.

BL51 BANKED LINKER/LOCATER V6.22 - SN: K1NBF-1AB1XU
COPYRIGHT KEIL ELEKTRONIK GmbH 1987 - 2009
USB_BL_ISR.OBJ, USB_BL_MAIN.OBJ, USB_BL_QUEUEMGMT.OBJ, USB_BL_USB_DESCRIPTOR.OBJ, USB_BL_STARTUP.OBJ, USBX_F34X.LIB TO USB_BL_F34X_64K.OMF RS(256) PL(48) PW(118) IXREF CODE(0x0-0x13FF,0xFA00-0xFBFE) 


Program Size: data=37.2 xdata=1342 code=5302
LINK/LOCATE RUN COMPLETE.  0 WARNING(S),  0 ERROR(S)

OBJECT TO HEX FILE CONVERTER OH51 V2.6
COPYRIGHT KEIL ELEKTRONIK GmbH 1991 - 2001

GENERATING INTEL HEX FILE: USB_BL_F34X_64K.hex

OBJECT TO HEX CONVERSION COMPLETED.

End of build process.

Build F34x_64k done
Pare M51 file ...
                                                     
Pare M51 file done.                                  
ECHO is off.
SYMBOL TABLE OF MODULE:  USB_BL_F34X_64K.OMF (USB_BL_ISR)
            CODE    0096H     0237H     UNIT         ?PR?USBXCORE_HANDLE_SETUP?USB_API
            CODE    04BDH     0151H     UNIT         ?PR?USBXCORE_USB_ISR?USB_API
            CODE    02CDH     01F0H     UNIT         ?PR?_BLOCK_WRITE?BLOCK_WRITE
            CODE    0875H     0110H     UNIT         ?PR?USBXCORE_VENDOR_USB_API?USB_API
            CODE    0745H     0130H     UNIT         ?PR?_BLOCK_READ?BLOCK_READ
            CODE    0A7AH     00BBH     UNIT         ?PR?USBXCORE_GET_DESCRIPTOR?USB_API
            CODE    0D71H     0073H     UNIT         ?PR?USBXCORE_GET_STATUS?USB_API
            CODE    120DH     0042H     UNIT         ?PR?USB_SUSPEND?USB_SUSPEND
            CODE    128DH     003AH     UNIT         ?CO?USB_API
            CODE    0F62H     005AH     UNIT         ?PR?USBXCORE_SET_CONFIGURATION?USB_API
            CODE    0EA5H     005FH     UNIT         ?PR?USBXCORE_CLEAR_FEATURE?USB_API
            CODE    0F04H     005EH     UNIT         ?PR?USBXCORE_SET_FEATURE?USB_API
            CODE    113AH     0047H     UNIT         ?PR?USBXCORE_GET_CONFIGURATION?USB_API
            CODE    1371H     0027H     UNIT         ?PR?USBXCORE_USB_RESET?USB_API
            CODE    1398H     0027H     UNIT         ?PR?USBXCORE_GET_INTERFACE?USB_API
            CODE    12C7H     002DH     UNIT         ?PR?USB_DISABLE?USB_DISABLE
            CODE    FA00H     0022H     UNIT         ?PR?USBXCORE_JUMP_ISR?USB_JUMP_ISR
            CODE    FA43H     0020H     UNIT         ?PR?USBXCORE_SET_ADDRESS?USB_API
            CODE    13E3H     001DH     UNIT         ?PR?USBXCORE_FORCE_STALL?USB_API
            CODE    FA96H     0019H     UNIT         ?PR?USB_INT_ENABLE?USB_INT_ENABLE
            CODE    FAAFH     0014H     UNIT         ?PR?USBXCORE_SET_SOP?USB_API
            CODE    FAD6H     000FH     UNIT         ?PR?GET_INTERRUPT_SOURCE?GET_INTERRUPT_SOURCE
            CODE    FAFAH     0008H     UNIT         ?PR?USB_INT_DISABLE?USB_INT_DISABLE
            86  =DEC2HEX(D186)  ?CO?USB_BL_USB_DESCRIPTOR                                          
            CODE    060EH     0137H     UNIT         ?PR?_USB_INIT?USB_API
            CODE    1181H     0047H     UNIT         ?PR?USB_CLOCK_START?USB_CLOCK_START
            CODE    FAE5H     000CH     UNIT         ?PR?USBXCORE_CLKREC?USB_CLOCK_RECOVERY
            CODE    0006H     0005H     UNIT         ?PR?USB_GET_LIBRARY_VERSION?USB_GET_LIBRARY_VERSION
            CODE    000EH     0004H     UNIT         ?C_INITSEG
?C_INITSEGSTART. . . . . . . CODE;    ** L51 GENERATED **  
C:\WorkFolder\MCU\WorkTrunk\Projects\Internal\2012\an200sw\AN200SW\USB_Bootloader_Firmware_Source\USB_BL_F34X_64K.hex
C:\WorkFolder\MCU\WorkTrunk\Projects\Internal\2012\an200sw\AN200SW\USB_Bootloader_Firmware_Source\USB_BL_F34X_64K.M51
C:\WorkFolder\MCU\WorkTrunk\Projects\Internal\2012\an200sw\AN200SW\USB_Bootloader_Firmware_Source\USB_BL_F34X_64K.OMF
C:\WorkFolder\MCU\WorkTrunk\Projects\Internal\2012\an200sw\AN200SW\USB_Bootloader_Firmware_Source\USB_BL_F34X_64K_CODE_BLOCK_LEN.txt
        4 file(s) moved.
Build F38x_32k ...
        1 file(s) copied.





------------------------------------------------------------

USB Bootloader Version 2.12 - Beginning Build...
Device type: _C8051F38X_32K_


C51 COMPILER V9.00 - SN: K1NBF-1AB1XU
COPYRIGHT KEIL ELEKTRONIK GmbH 1987 - 2009

C51 COMPILATION COMPLETE.  0 WARNING(S),  0 ERROR(S)

C51 COMPILER V9.00 - SN: K1NBF-1AB1XU
COPYRIGHT KEIL ELEKTRONIK GmbH 1987 - 2009

C51 COMPILATION COMPLETE.  0 WARNING(S),  0 ERROR(S)

C51 COMPILER V9.00 - SN: K1NBF-1AB1XU
COPYRIGHT KEIL ELEKTRONIK GmbH 1987 - 2009

C51 COMPILATION COMPLETE.  0 WARNING(S),  0 ERROR(S)

C51 COMPILER V9.00 - SN: K1NBF-1AB1XU
COPYRIGHT KEIL ELEKTRONIK GmbH 1987 - 2009

C51 COMPILATION COMPLETE.  0 WARNING(S),  0 ERROR(S)

A51 MACRO ASSEMBLER V8.01 - SN: K1NBF-1AB1XU
COPYRIGHT KEIL ELEKTRONIK GmbH 1987 - 2007

ASSEMBLY COMPLETE.  0 WARNING(S), 0 ERROR(S)
ECHO is off.
ECHO is off.
Link object in free way ...
ECHO is off.

BL51 BANKED LINKER/LOCATER V6.22 - SN: K1NBF-1AB1XU
COPYRIGHT KEIL ELEKTRONIK GmbH 1987 - 2009
USB_BL_ISR.OBJ, USB_BL_MAIN.OBJ, USB_BL_QUEUEMGMT.OBJ, USB_BL_USB_DESCRIPTOR.OBJ, USB_BL_STARTUP.OBJ, USBX_F38X.LIB TO USB_BL_F38X_32K.OMF RS(256) PL(48) PW(118) IXREF CODE(0x0-0x13FF,0x7E00-0x7FFE) 


Program Size: data=37.2 xdata=1342 code=5360
LINK/LOCATE RUN COMPLETE.  0 WARNING(S),  0 ERROR(S)

OBJECT TO HEX FILE CONVERTER OH51 V2.6
COPYRIGHT KEIL ELEKTRONIK GmbH 1991 - 2001

GENERATING INTEL HEX FILE: USB_BL_F38X_32K.hex

OBJECT TO HEX CONVERSION COMPLETED.

End of build process.

Build F38x_32k done
Pare M51 file ...
                                                     
Pare M51 file done.                                  
ECHO is off.
SYMBOL TABLE OF MODULE:  USB_BL_F38X_32K.OMF (USB_BL_ISR)
            CODE    00AEH     0237H     UNIT         ?PR?USBXCORE_HANDLE_SETUP?USB_API
            CODE    04D5H     0151H     UNIT         ?PR?USBXCORE_USB_ISR?USB_API
            CODE    02E5H     01F0H     UNIT         ?PR?_BLOCK_WRITE?BLOCK_WRITE
            CODE    088DH     0110H     UNIT         ?PR?USBXCORE_VENDOR_USB_API?USB_API
            CODE    075DH     0130H     UNIT         ?PR?_BLOCK_READ?BLOCK_READ
            CODE    0A92H     00BBH     UNIT         ?PR?USBXCORE_GET_DESCRIPTOR?USB_API
            CODE    0D89H     0073H     UNIT         ?PR?USBXCORE_GET_STATUS?USB_API
            CODE    0DFCH     0073H     UNIT         ?PR?USB_SUSPEND?USB_SUSPEND
            CODE    12D6H     003AH     UNIT         ?CO?USB_API
            CODE    0FEDH     005AH     UNIT         ?PR?USBXCORE_SET_CONFIGURATION?USB_API
            CODE    0F30H     005FH     UNIT         ?PR?USBXCORE_CLEAR_FEATURE?USB_API
            CODE    0F8FH     005EH     UNIT         ?PR?USBXCORE_SET_FEATURE?USB_API
            CODE    11C5H     0047H     UNIT         ?PR?USBXCORE_GET_CONFIGURATION?USB_API
            CODE    13BAH     0027H     UNIT         ?PR?USBXCORE_USB_RESET?USB_API
            CODE    7E00H     0027H     UNIT         ?PR?USBXCORE_GET_INTERFACE?USB_API
            CODE    1310H     002DH     UNIT         ?PR?USB_DISABLE?USB_DISABLE
            CODE    7E4BH     0022H     UNIT         ?PR?USBXCORE_JUMP_ISR?USB_JUMP_ISR
            CODE    7E8EH     0020H     UNIT         ?PR?USBXCORE_SET_ADDRESS?USB_API
            CODE    13E1H     001DH     UNIT         ?PR?USBXCORE_FORCE_STALL?USB_API
            CODE    7EE1H     0019H     UNIT         ?PR?USB_INT_ENABLE?USB_INT_ENABLE
            CODE    7EFAH     0014H     UNIT         ?PR?USBXCORE_SET_SOP?USB_API
            CODE    7F21H     000FH     UNIT         ?PR?GET_INTERRUPT_SOURCE?GET_INTERRUPT_SOURCE
            CODE    7F45H     0008H     UNIT         ?PR?USB_INT_DISABLE?USB_INT_DISABLE
            86  =DEC2HEX(D186)  ?CO?USB_BL_USB_DESCRIPTOR                                          
            CODE    0626H     0137H     UNIT         ?PR?_USB_INIT?USB_API
            CODE    120CH     0047H     UNIT         ?PR?USB_CLOCK_START?USB_CLOCK_START
            CODE    7F30H     000CH     UNIT         ?PR?USBXCORE_CLKREC?USB_CLOCK_RECOVERY
            CODE    0006H     0005H     UNIT         ?PR?USB_GET_LIBRARY_VERSION?USB_GET_LIBRARY_VERSION
            CODE    000EH     0004H     UNIT         ?C_INITSEG
?C_INITSEGSTART. . . . . . . CODE;    ** L51 GENERATED **  
C:\WorkFolder\MCU\WorkTrunk\Projects\Internal\2012\an200sw\AN200SW\USB_Bootloader_Firmware_Source\USB_BL_F38X_32K.hex
C:\WorkFolder\MCU\WorkTrunk\Projects\Internal\2012\an200sw\AN200SW\USB_Bootloader_Firmware_Source\USB_BL_F38X_32K.M51
C:\WorkFolder\MCU\WorkTrunk\Projects\Internal\2012\an200sw\AN200SW\USB_Bootloader_Firmware_Source\USB_BL_F38X_32K.OMF
C:\WorkFolder\MCU\WorkTrunk\Projects\Internal\2012\an200sw\AN200SW\USB_Bootloader_Firmware_Source\USB_BL_F38X_32K_CODE_BLOCK_LEN.txt
        4 file(s) moved.
Build F38x_64k ...
        1 file(s) copied.





------------------------------------------------------------

USB Bootloader Version 2.12 - Beginning Build...
Device type: _C8051F38X_64K_


C51 COMPILER V9.00 - SN: K1NBF-1AB1XU
COPYRIGHT KEIL ELEKTRONIK GmbH 1987 - 2009

C51 COMPILATION COMPLETE.  0 WARNING(S),  0 ERROR(S)

C51 COMPILER V9.00 - SN: K1NBF-1AB1XU
COPYRIGHT KEIL ELEKTRONIK GmbH 1987 - 2009

C51 COMPILATION COMPLETE.  0 WARNING(S),  0 ERROR(S)

C51 COMPILER V9.00 - SN: K1NBF-1AB1XU
COPYRIGHT KEIL ELEKTRONIK GmbH 1987 - 2009

C51 COMPILATION COMPLETE.  0 WARNING(S),  0 ERROR(S)

C51 COMPILER V9.00 - SN: K1NBF-1AB1XU
COPYRIGHT KEIL ELEKTRONIK GmbH 1987 - 2009

C51 COMPILATION COMPLETE.  0 WARNING(S),  0 ERROR(S)

A51 MACRO ASSEMBLER V8.01 - SN: K1NBF-1AB1XU
COPYRIGHT KEIL ELEKTRONIK GmbH 1987 - 2007

ASSEMBLY COMPLETE.  0 WARNING(S), 0 ERROR(S)
ECHO is off.
ECHO is off.
Link object in free way ...
ECHO is off.

BL51 BANKED LINKER/LOCATER V6.22 - SN: K1NBF-1AB1XU
COPYRIGHT KEIL ELEKTRONIK GmbH 1987 - 2009
USB_BL_ISR.OBJ, USB_BL_MAIN.OBJ, USB_BL_QUEUEMGMT.OBJ, USB_BL_USB_DESCRIPTOR.OBJ, USB_BL_STARTUP.OBJ, USBX_F38X.LIB TO USB_BL_F38X_64K.OMF RS(256)  PL(48) PW(118) IXREF CODE(0x0-0x13FF,0xFA00-0xFBFE) 


Program Size: data=37.2 xdata=1342 code=5360
LINK/LOCATE RUN COMPLETE.  0 WARNING(S),  0 ERROR(S)

OBJECT TO HEX FILE CONVERTER OH51 V2.6
COPYRIGHT KEIL ELEKTRONIK GmbH 1991 - 2001

GENERATING INTEL HEX FILE: USB_BL_F38X_64K.hex

OBJECT TO HEX CONVERSION COMPLETED.

End of build process.

Build F38x_64k done
Pare M51 file ...
                                                     
Pare M51 file done.                                  
ECHO is off.
SYMBOL TABLE OF MODULE:  USB_BL_F38X_64K.OMF (USB_BL_ISR)
            CODE    00AEH     0237H     UNIT         ?PR?USBXCORE_HANDLE_SETUP?USB_API
            CODE    04D5H     0151H     UNIT         ?PR?USBXCORE_USB_ISR?USB_API
            CODE    02E5H     01F0H     UNIT         ?PR?_BLOCK_WRITE?BLOCK_WRITE
            CODE    088DH     0110H     UNIT         ?PR?USBXCORE_VENDOR_USB_API?USB_API
            CODE    075DH     0130H     UNIT         ?PR?_BLOCK_READ?BLOCK_READ
            CODE    0A92H     00BBH     UNIT         ?PR?USBXCORE_GET_DESCRIPTOR?USB_API
            CODE    0D89H     0073H     UNIT         ?PR?USBXCORE_GET_STATUS?USB_API
            CODE    0DFCH     0073H     UNIT         ?PR?USB_SUSPEND?USB_SUSPEND
            CODE    12D6H     003AH     UNIT         ?CO?USB_API
            CODE    0FEDH     005AH     UNIT         ?PR?USBXCORE_SET_CONFIGURATION?USB_API
            CODE    0F30H     005FH     UNIT         ?PR?USBXCORE_CLEAR_FEATURE?USB_API
            CODE    0F8FH     005EH     UNIT         ?PR?USBXCORE_SET_FEATURE?USB_API
            CODE    11C5H     0047H     UNIT         ?PR?USBXCORE_GET_CONFIGURATION?USB_API
            CODE    13BAH     0027H     UNIT         ?PR?USBXCORE_USB_RESET?USB_API
            CODE    FA00H     0027H     UNIT         ?PR?USBXCORE_GET_INTERFACE?USB_API
            CODE    1310H     002DH     UNIT         ?PR?USB_DISABLE?USB_DISABLE
            CODE    FA4BH     0022H     UNIT         ?PR?USBXCORE_JUMP_ISR?USB_JUMP_ISR
            CODE    FA8EH     0020H     UNIT         ?PR?USBXCORE_SET_ADDRESS?USB_API
            CODE    13E1H     001DH     UNIT         ?PR?USBXCORE_FORCE_STALL?USB_API
            CODE    FAE1H     0019H     UNIT         ?PR?USB_INT_ENABLE?USB_INT_ENABLE
            CODE    FAFAH     0014H     UNIT         ?PR?USBXCORE_SET_SOP?USB_API
            CODE    FB21H     000FH     UNIT         ?PR?GET_INTERRUPT_SOURCE?GET_INTERRUPT_SOURCE
            CODE    FB45H     0008H     UNIT         ?PR?USB_INT_DISABLE?USB_INT_DISABLE
            86  =DEC2HEX(D186)  ?CO?USB_BL_USB_DESCRIPTOR                                          
            CODE    0626H     0137H     UNIT         ?PR?_USB_INIT?USB_API
            CODE    120CH     0047H     UNIT         ?PR?USB_CLOCK_START?USB_CLOCK_START
            CODE    FB30H     000CH     UNIT         ?PR?USBXCORE_CLKREC?USB_CLOCK_RECOVERY
            CODE    0006H     0005H     UNIT         ?PR?USB_GET_LIBRARY_VERSION?USB_GET_LIBRARY_VERSION
            CODE    000EH     0004H     UNIT         ?C_INITSEG
?C_INITSEGSTART. . . . . . . CODE;    ** L51 GENERATED **  
C:\WorkFolder\MCU\WorkTrunk\Projects\Internal\2012\an200sw\AN200SW\USB_Bootloader_Firmware_Source\USB_BL_F38X_64K.hex
C:\WorkFolder\MCU\WorkTrunk\Projects\Internal\2012\an200sw\AN200SW\USB_Bootloader_Firmware_Source\USB_BL_F38X_64K.M51
C:\WorkFolder\MCU\WorkTrunk\Projects\Internal\2012\an200sw\AN200SW\USB_Bootloader_Firmware_Source\USB_BL_F38X_64K.OMF
C:\WorkFolder\MCU\WorkTrunk\Projects\Internal\2012\an200sw\AN200SW\USB_Bootloader_Firmware_Source\USB_BL_F38X_64K_CODE_BLOCK_LEN.txt
        4 file(s) moved.
